; Function Attrs: nounwind uwtable
define internal fastcc range(i32 -2147483648, 1) i32 @mxf_write_opatom_body_partition(ptr noundef %0) unnamed_addr #0 {
  %2 = getelementptr inbounds nuw i8, ptr %0, i64 24
  %3 = load ptr, ptr %2, align 8, !tbaa !4
  %4 = getelementptr inbounds nuw i8, ptr %0, i64 32
  %5 = load ptr, ptr %4, align 8, !tbaa !24
  %6 = getelementptr inbounds nuw i8, ptr %0, i64 48
  %7 = load ptr, ptr %6, align 8, !tbaa !25
  %8 = load ptr, ptr %7, align 8, !tbaa !31
  %9 = getelementptr inbounds nuw i8, ptr %8, i64 24
  %10 = load ptr, ptr %9, align 8, !tbaa !33
  %11 = getelementptr inbounds nuw i8, ptr %3, i64 28
  %12 = load i32, ptr %11, align 4, !tbaa !36
  %.not = icmp eq i32 %12, 0
  %body_partition_key. = select i1 %.not, ptr @body_partition_key, ptr null
  %13 = tail call fastcc i32 @mxf_write_partition(ptr noundef nonnull %0, i32 noundef 1, i32 noundef 0, ptr noundef %body_partition_key., i32 noundef 0)
  %14 = icmp slt i32 %13, 0
  br i1 %14, label %33, label %15

15:                                               ; preds = %1
  %16 = load ptr, ptr %4, align 8, !tbaa !24
  %17 = tail call i64 @avio_seek(ptr noundef %16, i64 noundef 0, i32 noundef 1) #14
  %18 = trunc i64 %17 to i32
  %19 = and i32 %18, 511
  %20 = icmp samesign ugt i32 %19, 492
  %21 = sub nuw nsw i32 1024, %19
  %22 = sub i32 0, %18
  %23 = and i32 %22, 511
  %.0.i.i = select i1 %20, i32 %21, i32 %23
  %.not.i = icmp eq i32 %.0.i.i, 0
  br i1 %.not.i, label %mxf_write_klv_fill.exit, label %24

24:                                               ; preds = %15
  %25 = load ptr, ptr %4, align 8, !tbaa !24
  tail call void @avio_write(ptr noundef %25, ptr noundef nonnull @klv_fill_key, i32 noundef 16) #14
  %26 = add nsw i32 %.0.i.i, -20
  %27 = load ptr, ptr %4, align 8, !tbaa !24
  tail call void @avio_w8(ptr noundef %27, i32 noundef 131) #14
  tail call void @avio_wb24(ptr noundef %27, i32 noundef %26) #14
  %28 = load ptr, ptr %4, align 8, !tbaa !24
  %29 = zext i32 %26 to i64
  tail call void @ffio_fill(ptr noundef %28, i32 noundef 0, i64 noundef %29) #14
  br label %mxf_write_klv_fill.exit

mxf_write_klv_fill.exit:                          ; preds = %15, %24
  %30 = getelementptr inbounds nuw i8, ptr %10, i64 8
  tail call void @avio_write(ptr noundef %5, ptr noundef nonnull %30, i32 noundef 16) #14
  %31 = getelementptr inbounds nuw i8, ptr %3, i64 136
  %32 = load i64, ptr %31, align 8, !tbaa !124
  tail call void @avio_w8(ptr noundef %5, i32 noundef 136) #14
  tail call void @avio_wb64(ptr noundef %5, i64 noundef %32) #14
  br label %33

33:                                               ; preds = %1, %mxf_write_klv_fill.exit
  ret i32 %13
}